target datalayout = "e-m:e-p270:32:32-p271:32:32-p272:64:64-i64:64-i128:128-f80:128-n8:16:32:64-S128"
target triple = "x86_64-pc-linux-gnu"

; Function Attrs: alwaysinline nounwind willreturn memory(none) uwtable
define internal i32 @av_bswap32(i32 noundef %0) #2 {
  %2 = alloca i32, align 4
  store i32 %0, ptr %2, align 4, !tbaa !9
  %3 = load i32, ptr %2, align 4, !tbaa !9
  %4 = shl i32 %3, 8
  %5 = and i32 %4, 65280
  %6 = load i32, ptr %2, align 4, !tbaa !9
  %7 = lshr i32 %6, 8
  %8 = and i32 %7, 255
  %9 = or i32 %5, %8
  %10 = shl i32 %9, 16
  %11 = load i32, ptr %2, align 4, !tbaa !9
  %12 = lshr i32 %11, 16
  %13 = shl i32 %12, 8
  %14 = and i32 %13, 65280
  %15 = load i32, ptr %2, align 4, !tbaa !9
  %16 = lshr i32 %15, 16
  %17 = lshr i32 %16, 8
  %18 = and i32 %17, 255
  %19 = or i32 %14, %18
  %20 = or i32 %10, %19
  ret i32 %20
}

; Function Attrs: nounwind uwtable
define i32 @av_crc_init(ptr noundef %0, i32 noundef %1, i32 noundef %2, i32 noundef %3, i32 noundef %4) #0 {
  %6 = alloca i32, align 4
  %7 = alloca ptr, align 8
  %8 = alloca i32, align 4
  %9 = alloca i32, align 4
  %10 = alloca i32, align 4
  %11 = alloca i32, align 4
  %12 = alloca i32, align 4
  %13 = alloca i32, align 4
  %14 = alloca i32, align 4
  %15 = alloca i32, align 4
  store ptr %0, ptr %7, align 8, !tbaa !4
  store i32 %1, ptr %8, align 4, !tbaa !9
  store i32 %2, ptr %9, align 4, !tbaa !9
  store i32 %3, ptr %10, align 4, !tbaa !9
  store i32 %4, ptr %11, align 4, !tbaa !9
  call void @llvm.lifetime.start.p0(i64 4, ptr %12) #6
  call void @llvm.lifetime.start.p0(i64 4, ptr %13) #6
  call void @llvm.lifetime.start.p0(i64 4, ptr %14) #6
  %16 = load i32, ptr %9, align 4, !tbaa !9
  %17 = icmp slt i32 %16, 8
  br i1 %17, label %28, label %18

18:                                               ; preds = %5
  %19 = load i32, ptr %9, align 4, !tbaa !9
  %20 = icmp sgt i32 %19, 32
  br i1 %20, label %28, label %21

21:                                               ; preds = %18
  %22 = load i32, ptr %10, align 4, !tbaa !9
  %23 = zext i32 %22 to i64
  %24 = load i32, ptr %9, align 4, !tbaa !9
  %25 = zext i32 %24 to i64
  %26 = shl i64 1, %25
  %27 = icmp sge i64 %23, %26
  br i1 %27, label %28, label %29

28:                                               ; preds = %21, %18, %5
  store i32 -22, ptr %6, align 4
  store i32 1, ptr %15, align 4
  br label %154

29:                                               ; preds = %21
  %30 = load i32, ptr %11, align 4, !tbaa !9
  %31 = sext i32 %30 to i64
  %32 = icmp ne i64 %31, 1028
  br i1 %32, label %33, label %38

33:                                               ; preds = %29
  %34 = load i32, ptr %11, align 4, !tbaa !9
  %35 = sext i32 %34 to i64
  %36 = icmp ne i64 %35, 4096
  br i1 %36, label %37, label %38

37:                                               ; preds = %33
  store i32 -22, ptr %6, align 4
  store i32 1, ptr %15, align 4
  br label %154

38:                                               ; preds = %33, %29
  store i32 0, ptr %12, align 4, !tbaa !9
  br label %39

39:                                               ; preds = %96, %38
  %40 = load i32, ptr %12, align 4, !tbaa !9
  %41 = icmp ult i32 %40, 256
  br i1 %41, label %42, label %99

42:                                               ; preds = %39
  %43 = load i32, ptr %8, align 4, !tbaa !9
  %44 = icmp ne i32 %43, 0
  br i1 %44, label %45, label %68

45:                                               ; preds = %42
  %46 = load i32, ptr %12, align 4, !tbaa !9
  store i32 %46, ptr %14, align 4, !tbaa !9
  store i32 0, ptr %13, align 4, !tbaa !9
  br label %47

47:                                               ; preds = %59, %45
  %48 = load i32, ptr %13, align 4, !tbaa !9
  %49 = icmp ult i32 %48, 8
  br i1 %49, label %50, label %62

50:                                               ; preds = %47
  %51 = load i32, ptr %14, align 4, !tbaa !9
  %52 = lshr i32 %51, 1
  %53 = load i32, ptr %10, align 4, !tbaa !9
  %54 = load i32, ptr %14, align 4, !tbaa !9
  %55 = and i32 %54, 1
  %56 = sub i32 0, %55
  %57 = and i32 %53, %56
  %58 = xor i32 %52, %57
  store i32 %58, ptr %14, align 4, !tbaa !9
  br label %59

59:                                               ; preds = %50
  %60 = load i32, ptr %13, align 4, !tbaa !9
  %61 = add i32 %60, 1
  store i32 %61, ptr %13, align 4, !tbaa !9
  br label %47, !llvm.loop !11

62:                                               ; preds = %47
  %63 = load i32, ptr %14, align 4, !tbaa !9
  %64 = load ptr, ptr %7, align 8, !tbaa !4
  %65 = load i32, ptr %12, align 4, !tbaa !9
  %66 = zext i32 %65 to i64
  %67 = getelementptr inbounds nuw i32, ptr %64, i64 %66
  store i32 %63, ptr %67, align 4, !tbaa !9
  br label %95

68:                                               ; preds = %42
  %69 = load i32, ptr %12, align 4, !tbaa !9
  %70 = shl i32 %69, 24
  store i32 %70, ptr %14, align 4, !tbaa !9
  store i32 0, ptr %13, align 4, !tbaa !9
  br label %71

71:                                               ; preds = %85, %68
  %72 = load i32, ptr %13, align 4, !tbaa !9
  %73 = icmp ult i32 %72, 8
  br i1 %73, label %74, label %88

74:                                               ; preds = %71
  %75 = load i32, ptr %14, align 4, !tbaa !9
  %76 = shl i32 %75, 1
  %77 = load i32, ptr %10, align 4, !tbaa !9
  %78 = load i32, ptr %9, align 4, !tbaa !9
  %79 = sub nsw i32 32, %78
  %80 = shl i32 %77, %79
  %81 = load i32, ptr %14, align 4, !tbaa !9
  %82 = ashr i32 %81, 31
  %83 = and i32 %80, %82
  %84 = xor i32 %76, %83
  store i32 %84, ptr %14, align 4, !tbaa !9
  br label %85

85:                                               ; preds = %74
  %86 = load i32, ptr %13, align 4, !tbaa !9
  %87 = add i32 %86, 1
  store i32 %87, ptr %13, align 4, !tbaa !9
  br label %71, !llvm.loop !13

88:                                               ; preds = %71
  %89 = load i32, ptr %14, align 4, !tbaa !9
  %90 = call i32 @av_bswap32(i32 noundef %89) #7
  %91 = load ptr, ptr %7, align 8, !tbaa !4
  %92 = load i32, ptr %12, align 4, !tbaa !9
  %93 = zext i32 %92 to i64
  %94 = getelementptr inbounds nuw i32, ptr %91, i64 %93
  store i32 %90, ptr %94, align 4, !tbaa !9
  br label %95

95:                                               ; preds = %88, %62
  br label %96

96:                                               ; preds = %95
  %97 = load i32, ptr %12, align 4, !tbaa !9
  %98 = add i32 %97, 1
  store i32 %98, ptr %12, align 4, !tbaa !9
  br label %39, !llvm.loop !14

99:                                               ; preds = %39
  %100 = load ptr, ptr %7, align 8, !tbaa !4
  %101 = getelementptr inbounds i32, ptr %100, i64 256
  store i32 1, ptr %101, align 4, !tbaa !9
  %102 = load i32, ptr %11, align 4, !tbaa !9
  %103 = sext i32 %102 to i64
  %104 = icmp uge i64 %103, 4096
  br i1 %104, label %105, label %153

105:                                              ; preds = %99
  store i32 0, ptr %12, align 4, !tbaa !9
  br label %106

106:                                              ; preds = %149, %105
  %107 = load i32, ptr %12, align 4, !tbaa !9
  %108 = icmp ult i32 %107, 256
  br i1 %108, label %109, label %152

109:                                              ; preds = %106
  store i32 0, ptr %13, align 4, !tbaa !9
  br label %110

110:                                              ; preds = %145, %109
  %111 = load i32, ptr %13, align 4, !tbaa !9
  %112 = icmp ult i32 %111, 3
  br i1 %112, label %113, label %148

113:                                              ; preds = %110
  %114 = load ptr, ptr %7, align 8, !tbaa !4
  %115 = load i32, ptr %13, align 4, !tbaa !9
  %116 = mul i32 256, %115
  %117 = load i32, ptr %12, align 4, !tbaa !9
  %118 = add i32 %116, %117
  %119 = zext i32 %118 to i64
  %120 = getelementptr inbounds nuw i32, ptr %114, i64 %119
  %121 = load i32, ptr %120, align 4, !tbaa !9
  %122 = lshr i32 %121, 8
  %123 = load ptr, ptr %7, align 8, !tbaa !4
  %124 = load ptr, ptr %7, align 8, !tbaa !4
  %125 = load i32, ptr %13, align 4, !tbaa !9
  %126 = mul i32 256, %125
  %127 = load i32, ptr %12, align 4, !tbaa !9
  %128 = add i32 %126, %127
  %129 = zext i32 %128 to i64
  %130 = getelementptr inbounds nuw i32, ptr %124, i64 %129
  %131 = load i32, ptr %130, align 4, !tbaa !9
  %132 = and i32 %131, 255
  %133 = zext i32 %132 to i64
  %134 = getelementptr inbounds nuw i32, ptr %123, i64 %133
  %135 = load i32, ptr %134, align 4, !tbaa !9
  %136 = xor i32 %122, %135
  %137 = load ptr, ptr %7, align 8, !tbaa !4
  %138 = load i32, ptr %13, align 4, !tbaa !9
  %139 = add i32 %138, 1
  %140 = mul i32 256, %139
  %141 = load i32, ptr %12, align 4, !tbaa !9
  %142 = add i32 %140, %141
  %143 = zext i32 %142 to i64
  %144 = getelementptr inbounds nuw i32, ptr %137, i64 %143
  store i32 %136, ptr %144, align 4, !tbaa !9
  br label %145

145:                                              ; preds = %113
  %146 = load i32, ptr %13, align 4, !tbaa !9
  %147 = add i32 %146, 1
  store i32 %147, ptr %13, align 4, !tbaa !9
  br label %110, !llvm.loop !15

148:                                              ; preds = %110
  br label %149

149:                                              ; preds = %148
  %150 = load i32, ptr %12, align 4, !tbaa !9
  %151 = add i32 %150, 1
  store i32 %151, ptr %12, align 4, !tbaa !9
  br label %106, !llvm.loop !16

152:                                              ; preds = %106
  br label %153

153:                                              ; preds = %152, %99
  store i32 0, ptr %6, align 4
  store i32 1, ptr %15, align 4
  br label %154

154:                                              ; preds = %153, %37, %28
  call void @llvm.lifetime.end.p0(i64 4, ptr %14) #6
  call void @llvm.lifetime.end.p0(i64 4, ptr %13) #6
  call void @llvm.lifetime.end.p0(i64 4, ptr %12) #6
  %155 = load i32, ptr %6, align 4
  ret i32 %155
}