; Function Attrs: nofree norecurse nosync nounwind memory(argmem: readwrite) uwtable
define range(i32 -22, 1) i32 @av_crc_init(ptr noundef captures(none) %0, i32 noundef %1, i32 noundef %2, i32 noundef %3, i32 noundef %4) local_unnamed_addr #0 {
  %6 = add i32 %2, -8
  %or.cond = icmp ult i32 %6, 25
  %7 = zext i32 %3 to i64
  %8 = zext nneg i32 %2 to i64
  %.highbits = lshr i64 %7, %8
  %.not = icmp eq i64 %.highbits, 0
  %or.cond56 = select i1 %or.cond, i1 %.not, i1 false
  br i1 %or.cond56, label %9, label %.loopexit

9:                                                ; preds = %5
  switch i32 %4, label %.loopexit [
    i32 4096, label %10
    i32 1028, label %10
  ]

10:                                               ; preds = %9, %9
  %.not54 = icmp eq i32 %1, 0
  %11 = sub nuw nsw i32 32, %2
  %12 = shl i32 %3, %11
  br i1 %.not54, label %.split.us, label %.preheader58

.split.us:                                        ; preds = %10, %14
  %indvars.iv73 = phi i64 [ %indvars.iv.next74, %14 ], [ 0, %10 ]
  %indvars.iv73.tr = trunc i64 %indvars.iv73 to i32
  %13 = shl i32 %indvars.iv73.tr, 24
  br label %17

14:                                               ; preds = %17
  %15 = tail call i32 @llvm.bswap.i32(i32 %20)
  %16 = getelementptr inbounds nuw i32, ptr %0, i64 %indvars.iv73
  store i32 %15, ptr %16, align 4, !tbaa !4
  %indvars.iv.next74 = add nuw nsw i64 %indvars.iv73, 1
  %exitcond76.not = icmp eq i64 %indvars.iv.next74, 256
  br i1 %exitcond76.not, label %.split65.us, label %.split.us, !llvm.loop !8

17:                                               ; preds = %17, %.split.us
  %.162.us = phi i32 [ %13, %.split.us ], [ %20, %17 ]
  %.14961.us = phi i32 [ 0, %.split.us ], [ %21, %17 ]
  %18 = shl i32 %.162.us, 1
  %isneg.us = icmp slt i32 %.162.us, 0
  %19 = select i1 %isneg.us, i32 %12, i32 0
  %20 = xor i32 %19, %18
  %21 = add nuw nsw i32 %.14961.us, 1
  %exitcond72.not = icmp eq i32 %21, 8
  br i1 %exitcond72.not, label %14, label %17, !llvm.loop !10

.preheader58:                                     ; preds = %10, %30
  %indvars.iv = phi i64 [ %indvars.iv.next, %30 ], [ 0, %10 ]
  %22 = trunc nuw nsw i64 %indvars.iv to i32
  br label %23

23:                                               ; preds = %.preheader58, %23
  %.060 = phi i32 [ %22, %.preheader58 ], [ %28, %23 ]
  %.04859 = phi i32 [ 0, %.preheader58 ], [ %29, %23 ]
  %24 = lshr i32 %.060, 1
  %25 = and i32 %.060, 1
  %26 = icmp eq i32 %25, 0
  %27 = select i1 %26, i32 0, i32 %3
  %28 = xor i32 %27, %24
  %29 = add nuw nsw i32 %.04859, 1
  %exitcond.not = icmp eq i32 %29, 8
  br i1 %exitcond.not, label %30, label %23, !llvm.loop !11

30:                                               ; preds = %23
  %31 = getelementptr inbounds nuw i32, ptr %0, i64 %indvars.iv
  store i32 %28, ptr %31, align 4, !tbaa !4
  %indvars.iv.next = add nuw nsw i64 %indvars.iv, 1
  %exitcond71.not = icmp eq i64 %indvars.iv.next, 256
  br i1 %exitcond71.not, label %.split65.us, label %.preheader58, !llvm.loop !8

.split65.us:                                      ; preds = %30, %14
  %32 = getelementptr inbounds nuw i8, ptr %0, i64 1024
  store i32 1, ptr %32, align 4, !tbaa !4
  %33 = icmp ugt i32 %4, 4095
  br i1 %33, label %.preheader, label %.loopexit

.preheader:                                       ; preds = %.split65.us, %42
  %indvars.iv81 = phi i64 [ %indvars.iv.next82, %42 ], [ 0, %.split65.us ]
  %invariant.gep = getelementptr inbounds nuw i32, ptr %0, i64 %indvars.iv81
  %invariant.gep88 = getelementptr inbounds nuw i32, ptr %0, i64 %indvars.iv81
  br label %34

34:                                               ; preds = %.preheader, %34
  %indvars.iv77 = phi i64 [ 0, %.preheader ], [ %indvars.iv.next78, %34 ]
  %.idx = shl nuw nsw i64 %indvars.iv77, 10
  %gep = getelementptr inbounds nuw i8, ptr %invariant.gep, i64 %.idx
  %35 = load i32, ptr %gep, align 4, !tbaa !4
  %36 = lshr i32 %35, 8
  %37 = and i32 %35, 255
  %38 = zext nneg i32 %37 to i64
  %39 = getelementptr inbounds nuw i32, ptr %0, i64 %38
  %40 = load i32, ptr %39, align 4, !tbaa !4
  %41 = xor i32 %36, %40
  %indvars.iv.next78 = add nuw nsw i64 %indvars.iv77, 1
  %.idx85 = shl nuw nsw i64 %indvars.iv.next78, 10
  %gep89 = getelementptr inbounds nuw i8, ptr %invariant.gep88, i64 %.idx85
  store i32 %41, ptr %gep89, align 4, !tbaa !4
  %exitcond80.not = icmp eq i64 %indvars.iv.next78, 3
  br i1 %exitcond80.not, label %42, label %34, !llvm.loop !12

42:                                               ; preds = %34
  %indvars.iv.next82 = add nuw nsw i64 %indvars.iv81, 1
  %exitcond84.not = icmp eq i64 %indvars.iv.next82, 256
  br i1 %exitcond84.not, label %.loopexit, label %.preheader, !llvm.loop !13

.loopexit:                                        ; preds = %42, %.split65.us, %9, %5
  %.052 = phi i32 [ -22, %5 ], [ -22, %9 ], [ 0, %.split65.us ], [ 0, %42 ]
  ret i32 %.052
}